target datalayout = "e-m:e-p270:32:32-p271:32:32-p272:64:64-i64:64-i128:128-f80:128-n8:16:32:64-S128"
target triple = "x86_64-pc-linux-gnu"

@.str.16 = private unnamed_addr constant [50 x i8] c"malformed SCRAM message (attribute \22%c\22 expected)\00", align 1
@.str.17 = private unnamed_addr constant [68 x i8] c"malformed SCRAM message (expected character \22=\22 for attribute \22%c\22)\00", align 1

; Function Attrs: nounwind uwtable
define internal ptr @read_attr_value(ptr noundef %0, i8 noundef signext %1, ptr noundef %2) #0 {
  %4 = alloca ptr, align 8
  %5 = alloca ptr, align 8
  %6 = alloca i8, align 1
  %7 = alloca ptr, align 8
  %8 = alloca ptr, align 8
  %9 = alloca ptr, align 8
  %10 = alloca i32, align 4
  store ptr %0, ptr %5, align 8
  store i8 %1, ptr %6, align 1
  store ptr %2, ptr %7, align 8
  call void @llvm.lifetime.start.p0(i64 8, ptr %8) #8
  %11 = load ptr, ptr %5, align 8
  %12 = load ptr, ptr %11, align 8
  store ptr %12, ptr %8, align 8
  call void @llvm.lifetime.start.p0(i64 8, ptr %9) #8
  %13 = load ptr, ptr %8, align 8
  %14 = load i8, ptr %13, align 1
  %15 = sext i8 %14 to i32
  %16 = load i8, ptr %6, align 1
  %17 = sext i8 %16 to i32
  %18 = icmp ne i32 %15, %17
  br i1 %18, label %19, label %23

19:                                               ; preds = %3
  %20 = load ptr, ptr %7, align 8
  %21 = load i8, ptr %6, align 1
  %22 = sext i8 %21 to i32
  call void (ptr, ptr, ...) @libpq_append_error(ptr noundef %20, ptr noundef @.str.16, i32 noundef %22)
  store ptr null, ptr %4, align 8
  store i32 1, ptr %10, align 4
  br label %67

23:                                               ; preds = %3
  %24 = load ptr, ptr %8, align 8
  %25 = getelementptr inbounds nuw i8, ptr %24, i32 1
  store ptr %25, ptr %8, align 8
  %26 = load ptr, ptr %8, align 8
  %27 = load i8, ptr %26, align 1
  %28 = sext i8 %27 to i32
  %29 = icmp ne i32 %28, 61
  br i1 %29, label %30, label %34

30:                                               ; preds = %23
  %31 = load ptr, ptr %7, align 8
  %32 = load i8, ptr %6, align 1
  %33 = sext i8 %32 to i32
  call void (ptr, ptr, ...) @libpq_append_error(ptr noundef %31, ptr noundef @.str.17, i32 noundef %33)
  store ptr null, ptr %4, align 8
  store i32 1, ptr %10, align 4
  br label %67

34:                                               ; preds = %23
  %35 = load ptr, ptr %8, align 8
  %36 = getelementptr inbounds nuw i8, ptr %35, i32 1
  store ptr %36, ptr %8, align 8
  %37 = load ptr, ptr %8, align 8
  store ptr %37, ptr %9, align 8
  br label %38

38:                                               ; preds = %50, %34
  %39 = load ptr, ptr %9, align 8
  %40 = load i8, ptr %39, align 1
  %41 = sext i8 %40 to i32
  %42 = icmp ne i32 %41, 0
  br i1 %42, label %43, label %48

43:                                               ; preds = %38
  %44 = load ptr, ptr %9, align 8
  %45 = load i8, ptr %44, align 1
  %46 = sext i8 %45 to i32
  %47 = icmp ne i32 %46, 44
  br label %48

48:                                               ; preds = %43, %38
  %49 = phi i1 [ false, %38 ], [ %47, %43 ]
  br i1 %49, label %50, label %53

50:                                               ; preds = %48
  %51 = load ptr, ptr %9, align 8
  %52 = getelementptr inbounds nuw i8, ptr %51, i32 1
  store ptr %52, ptr %9, align 8
  br label %38, !llvm.loop !5

53:                                               ; preds = %48
  %54 = load ptr, ptr %9, align 8
  %55 = load i8, ptr %54, align 1
  %56 = icmp ne i8 %55, 0
  br i1 %56, label %57, label %62

57:                                               ; preds = %53
  %58 = load ptr, ptr %9, align 8
  store i8 0, ptr %58, align 1
  %59 = load ptr, ptr %9, align 8
  %60 = getelementptr inbounds i8, ptr %59, i64 1
  %61 = load ptr, ptr %5, align 8
  store ptr %60, ptr %61, align 8
  br label %65

62:                                               ; preds = %53
  %63 = load ptr, ptr %9, align 8
  %64 = load ptr, ptr %5, align 8
  store ptr %63, ptr %64, align 8
  br label %65

65:                                               ; preds = %62, %57
  %66 = load ptr, ptr %8, align 8
  store ptr %66, ptr %4, align 8
  store i32 1, ptr %10, align 4
  br label %67

67:                                               ; preds = %65, %30, %19
  call void @llvm.lifetime.end.p0(i64 8, ptr %9) #8
  call void @llvm.lifetime.end.p0(i64 8, ptr %8) #8
  %68 = load ptr, ptr %4, align 8
  ret ptr %68
}