; Function Attrs: nounwind uwtable
define internal fastcc ptr @read_attr_value(ptr noundef nonnull captures(none) %0, i8 noundef signext range(i8 101, 119) %1, ptr noundef %2) unnamed_addr #0 {
  %4 = load ptr, ptr %0, align 8
  %5 = load i8, ptr %4, align 1
  %6 = zext nneg i8 %1 to i32
  %.not = icmp eq i8 %5, %1
  br i1 %.not, label %8, label %7

7:                                                ; preds = %3
  tail call void (ptr, ptr, ...) @libpq_append_error(ptr noundef %2, ptr noundef nonnull @.str.16, i32 noundef %6) #13
  br label %20

8:                                                ; preds = %3
  %9 = getelementptr inbounds nuw i8, ptr %4, i64 1
  %10 = load i8, ptr %9, align 1
  %.not24 = icmp eq i8 %10, 61
  br i1 %.not24, label %12, label %11

11:                                               ; preds = %8
  tail call void (ptr, ptr, ...) @libpq_append_error(ptr noundef %2, ptr noundef nonnull @.str.17, i32 noundef %6) #13
  br label %20

12:                                               ; preds = %8
  %13 = getelementptr inbounds nuw i8, ptr %4, i64 2
  br label %14

14:                                               ; preds = %16, %12
  %.0 = phi ptr [ %13, %12 ], [ %17, %16 ]
  %15 = load i8, ptr %.0, align 1
  switch i8 %15, label %16 [
    i8 0, label %.loopexit
    i8 44, label %18
  ]

16:                                               ; preds = %14
  %17 = getelementptr inbounds nuw i8, ptr %.0, i64 1
  br label %14, !llvm.loop !3

18:                                               ; preds = %14
  store i8 0, ptr %.0, align 1
  %19 = getelementptr inbounds nuw i8, ptr %.0, i64 1
  br label %.loopexit

.loopexit:                                        ; preds = %14, %18
  %storemerge = phi ptr [ %19, %18 ], [ %.0, %14 ]
  store ptr %storemerge, ptr %0, align 8
  br label %20

20:                                               ; preds = %.loopexit, %11, %7
  %.021 = phi ptr [ null, %7 ], [ null, %11 ], [ %13, %.loopexit ]
  ret ptr %.021
}